target datalayout = "e-m:e-p270:32:32-p271:32:32-p272:64:64-i64:64-i128:128-f80:128-n8:16:32:64-S128"
target triple = "x86_64-pc-linux-gnu"

%struct._gpa_hfinfo_t = type { i32, i32, ptr }
%struct._header_field_info = type { ptr, ptr, i32, i32, ptr, i64, ptr, i32, i32, i32, i32, ptr }
%struct._e_prefs = type { ptr, i32, %struct.color_t, %struct.color_t, %struct.color_t, %struct.color_t, %struct.color_t, %struct.color_t, %struct.color_t, i8, i32, ptr, i32, %struct.color_t, %struct.color_t, i32, %struct.color_t, %struct.color_t, i32, %struct.color_t, %struct.color_t, %struct.color_t, %struct.color_t, ptr, ptr, i8, i8, i8, i32, i32, i32, ptr, i32, ptr, i8, i8, i8, ptr, ptr, ptr, i32, i32, i32, i32, i8, i32, i32, i32, i32, i32, ptr, i8, i8, i8, i8, i8, ptr, ptr, ptr, ptr, ptr, ptr, ptr, ptr, ptr, i8, i8, i8, i8, i32, i8, i8, i8, ptr, i32, i8, i8, i32, i8, i8, i8, i32, i8, i32, i8, i8, i8, i32, i32, i32, ptr, i8, i8, i8, i8, i8, i8, i32, i32, i8, i8, i8, i8, i32, i32, i32, i32, i8, i8, i32, i8, i8, i32, i32, i8, i8, i8, i32, i8, i8, i8 }
%struct.color_t = type { i16, i16, i16 }
%struct._proto_node = type { ptr, ptr, ptr, ptr, ptr, ptr, ptr }
%struct.tree_data_t = type { ptr, i8, i8, i32, ptr, i32, i32 }
%struct.field_info = type { ptr, i32, i32, i32, i32, i32, i32, ptr, ptr, ptr, i32, i32 }
%struct._packet_info = type { ptr, ptr, i32, i32, %struct.nstime_t, %struct.nstime_t, %struct.nstime_t, i8, ptr, ptr, ptr, ptr, %struct._address, %struct._address, %struct._address, %struct._address, %struct._address, %struct._address, i32, ptr, i8, [3 x i8], %struct.anon, i32, i32, i32, i32, ptr, i8, ptr, ptr, i16, i16, i32, i32, i16, i32, i32, ptr, ptr, ptr, i8, i8, i16, i16, i16, i32, i16, i16, ptr, ptr, ptr, ptr, ptr, i32, i32 }
%struct.nstime_t = type { i64, i32 }
%struct._address = type { i32, i32, ptr, ptr }
%struct.anon = type { i8, [3 x i8] }
%struct.ipv6_addr_and_prefix = type { %struct.e_in6_addr, i32 }
%struct.e_in6_addr = type { [16 x i8] }

@gpa_hfinfo = internal global %struct._gpa_hfinfo_t zeroinitializer, align 8
@wireshark_abort_on_dissector_bug = external global i8, align 1
@.str = private unnamed_addr constant [5 x i8] c"Epan\00", align 1
@.str.1 = private unnamed_addr constant [13 x i8] c"epan/proto.c\00", align 1
@.str.2 = private unnamed_addr constant [26 x i8] c"Unregistered hf! index=%d\00", align 1
@.str.3 = private unnamed_addr constant [34 x i8] c"%s:%u: failed assertion \22%s\22 (%s)\00", align 1
@.str.5 = private unnamed_addr constant [17 x i8] c"Unregistered hf!\00", align 1
@.str.7 = private unnamed_addr constant [50 x i8] c"hfindex > 0 && (unsigned)hfindex < gpa_hfinfo.len\00", align 1
@.str.8 = private unnamed_addr constant [38 x i8] c"gpa_hfinfo.hfi[hfindex] != ((void*)0)\00", align 1
@prefs = external global %struct._e_prefs, align 8
@wireshark_abort_on_too_many_items = external global i8, align 1
@.str.12 = private unnamed_addr constant [140 x i8] c"Adding %s would put more than %d items in the tree -- possible infinite loop (max number of items can be increased in advanced preferences)\00", align 1
@__func__.proto_tree_add_ipv6 = private unnamed_addr constant [20 x i8] c"proto_tree_add_ipv6\00", align 1
@.str.58 = private unnamed_addr constant [39 x i8] c"%s:%u: field %s is not of type FT_IPv6\00", align 1
@.str.62 = private unnamed_addr constant [29 x i8] c"%s:%u: failed assertion \22%s\22\00", align 1
@.str.273 = private unnamed_addr constant [20 x i8] c"value != ((void*)0)\00", align 1

; Function Attrs: null_pointer_is_valid sspstrong uwtable
define internal void @proto_tree_set_ipv6(ptr noundef %0, ptr noundef %1) #0 {
  %3 = alloca ptr, align 8
  %4 = alloca ptr, align 8
  %5 = alloca %struct.ipv6_addr_and_prefix, align 4
  store ptr %0, ptr %3, align 8
  store ptr %1, ptr %4, align 8
  %6 = load ptr, ptr %4, align 8
  %7 = icmp ne ptr %6, null
  br i1 %7, label %8, label %9

8:                                                ; preds = %2
  br label %11

9:                                                ; preds = %2
  call void (ptr, ...) @proto_report_dissector_bug(ptr noundef @.str.62, ptr noundef @.str.1, i32 noundef 5136, ptr noundef @.str.273) #27
  unreachable

10:                                               ; No predecessors!
  br label %11

11:                                               ; preds = %10, %8
  call void @llvm.lifetime.start.p0(i64 20, ptr %5) #24
  %12 = getelementptr inbounds nuw %struct.ipv6_addr_and_prefix, ptr %5, i32 0, i32 0
  %13 = load ptr, ptr %4, align 8
  call void @llvm.memcpy.p0.p0.i64(ptr align 4 %12, ptr align 1 %13, i64 16, i1 false)
  %14 = getelementptr inbounds nuw %struct.ipv6_addr_and_prefix, ptr %5, i32 0, i32 1
  store i32 128, ptr %14, align 4
  %15 = load ptr, ptr %3, align 8
  %16 = getelementptr inbounds nuw %struct.field_info, ptr %15, i32 0, i32 9
  %17 = load ptr, ptr %16, align 8
  call void @fvalue_set_ipv6(ptr noundef %17, ptr noundef %5)
  call void @llvm.lifetime.end.p0(i64 20, ptr %5) #24
  ret void
}

; Function Attrs: null_pointer_is_valid sspstrong uwtable
define internal ptr @proto_tree_add_pi(ptr noundef %0, ptr noundef %1, ptr noundef %2, i32 noundef %3, ptr noundef %4) #0 {
  %6 = alloca ptr, align 8
  %7 = alloca ptr, align 8
  %8 = alloca ptr, align 8
  %9 = alloca i32, align 4
  %10 = alloca ptr, align 8
  %11 = alloca ptr, align 8
  %12 = alloca ptr, align 8
  %13 = alloca i32, align 4
  store ptr %0, ptr %6, align 8
  store ptr %1, ptr %7, align 8
  store ptr %2, ptr %8, align 8
  store i32 %3, ptr %9, align 4
  store ptr %4, ptr %10, align 8
  call void @llvm.lifetime.start.p0(i64 8, ptr %11) #24
  call void @llvm.lifetime.start.p0(i64 8, ptr %12) #24
  call void @llvm.lifetime.start.p0(i64 4, ptr %13) #24
  %14 = load ptr, ptr %7, align 8
  %15 = load ptr, ptr %8, align 8
  %16 = load i32, ptr %9, align 4
  %17 = load ptr, ptr %10, align 8
  call void @get_hfi_length(ptr noundef %14, ptr noundef %15, i32 noundef %16, ptr noundef %17, ptr noundef %13, i32 noundef 0)
  %18 = load ptr, ptr %6, align 8
  %19 = load ptr, ptr %7, align 8
  %20 = load ptr, ptr %8, align 8
  %21 = load i32, ptr %9, align 4
  %22 = load i32, ptr %13, align 4
  %23 = call ptr @new_field_info(ptr noundef %18, ptr noundef %19, ptr noundef %20, i32 noundef %21, i32 noundef %22)
  store ptr %23, ptr %12, align 8
  %24 = load ptr, ptr %6, align 8
  %25 = load ptr, ptr %12, align 8
  %26 = call ptr @proto_tree_add_node(ptr noundef %24, ptr noundef %25)
  store ptr %26, ptr %11, align 8
  %27 = load ptr, ptr %11, align 8
  call void @llvm.lifetime.end.p0(i64 4, ptr %13) #24
  call void @llvm.lifetime.end.p0(i64 8, ptr %12) #24
  call void @llvm.lifetime.end.p0(i64 8, ptr %11) #24
  ret ptr %27
}

; Function Attrs: inlinehint nounwind null_pointer_is_valid sspstrong uwtable
define internal zeroext i1 @proto_item_is_hidden(ptr noundef %0) #11 {
  %2 = alloca i1, align 1
  %3 = alloca ptr, align 8
  store ptr %0, ptr %3, align 8
  %4 = load ptr, ptr %3, align 8
  %5 = icmp ne ptr %4, null
  br i1 %5, label %6, label %27

6:                                                ; preds = %1
  %7 = load ptr, ptr %3, align 8
  %8 = getelementptr inbounds nuw %struct._proto_node, ptr %7, i32 0, i32 5
  %9 = load ptr, ptr %8, align 8
  %10 = icmp ne ptr %9, null
  br i1 %10, label %11, label %27

11:                                               ; preds = %6
  %12 = load ptr, ptr %3, align 8
  %13 = getelementptr inbounds nuw %struct._proto_node, ptr %12, i32 0, i32 5
  %14 = load ptr, ptr %13, align 8
  %15 = icmp ne ptr %14, null
  br i1 %15, label %16, label %23

16:                                               ; preds = %11
  %17 = load ptr, ptr %3, align 8
  %18 = getelementptr inbounds nuw %struct._proto_node, ptr %17, i32 0, i32 5
  %19 = load ptr, ptr %18, align 8
  %20 = getelementptr inbounds nuw %struct.field_info, ptr %19, i32 0, i32 6
  %21 = load i32, ptr %20, align 4
  %22 = and i32 %21, 1
  br label %24

23:                                               ; preds = %11
  br label %24

24:                                               ; preds = %23, %16
  %25 = phi i32 [ %22, %16 ], [ 0, %23 ]
  %26 = icmp ne i32 %25, 0
  store i1 %26, ptr %2, align 1
  br label %28

27:                                               ; preds = %6, %1
  store i1 true, ptr %2, align 1
  br label %28

28:                                               ; preds = %27, %24
  %29 = load i1, ptr %2, align 1
  ret i1 %29
}

; Function Attrs: null_pointer_is_valid sspstrong uwtable
define ptr @proto_tree_add_ipv6(ptr noundef %0, i32 noundef %1, ptr noundef %2, i32 noundef %3, i32 noundef %4, ptr noundef %5) #0 {
  %7 = alloca ptr, align 8
  %8 = alloca ptr, align 8
  %9 = alloca i32, align 4
  %10 = alloca ptr, align 8
  %11 = alloca i32, align 4
  %12 = alloca i32, align 4
  %13 = alloca ptr, align 8
  %14 = alloca ptr, align 8
  %15 = alloca ptr, align 8
  %16 = alloca i32, align 4
  store ptr %0, ptr %8, align 8
  store i32 %1, ptr %9, align 4
  store ptr %2, ptr %10, align 8
  store i32 %3, ptr %11, align 4
  store i32 %4, ptr %12, align 4
  store ptr %5, ptr %13, align 8
  call void @llvm.lifetime.start.p0(i64 8, ptr %14) #24
  call void @llvm.lifetime.start.p0(i64 8, ptr %15) #24
  %17 = load ptr, ptr %8, align 8
  %18 = icmp ne ptr %17, null
  br i1 %18, label %20, label %19

19:                                               ; preds = %6
  store ptr null, ptr %7, align 8
  store i32 1, ptr %16, align 4
  br label %156

20:                                               ; preds = %6
  %21 = load ptr, ptr %8, align 8
  %22 = getelementptr inbounds nuw %struct._proto_node, ptr %21, i32 0, i32 6
  %23 = load ptr, ptr %22, align 8
  %24 = getelementptr inbounds nuw %struct.tree_data_t, ptr %23, i32 0, i32 3
  %25 = load i32, ptr %24, align 4
  %26 = add i32 %25, 1
  store i32 %26, ptr %24, align 4
  %27 = load i32, ptr %9, align 4
  %28 = icmp eq i32 %27, 0
  br i1 %28, label %33, label %29

29:                                               ; preds = %20
  %30 = load i32, ptr %9, align 4
  %31 = load i32, ptr @gpa_hfinfo, align 8
  %32 = icmp ugt i32 %30, %31
  br i1 %32, label %33, label %38

33:                                               ; preds = %29, %20
  %34 = load i8, ptr @wireshark_abort_on_dissector_bug, align 1, !range !10, !noundef !11
  %35 = trunc i8 %34 to i1
  br i1 %35, label %36, label %38

36:                                               ; preds = %33
  %37 = load i32, ptr %9, align 4
  call void (ptr, i32, ptr, i64, ptr, ptr, ...) @ws_log_fatal_full(ptr noundef @.str, i32 noundef 7, ptr noundef @.str.1, i64 noundef 5082, ptr noundef @__func__.proto_tree_add_ipv6, ptr noundef @.str.2, i32 noundef %37) #27
  unreachable

38:                                               ; preds = %33, %29
  %39 = load i32, ptr %9, align 4
  %40 = icmp sgt i32 %39, 0
  br i1 %40, label %41, label %46

41:                                               ; preds = %38
  %42 = load i32, ptr %9, align 4
  %43 = load i32, ptr @gpa_hfinfo, align 8
  %44 = icmp ult i32 %42, %43
  br i1 %44, label %45, label %46

45:                                               ; preds = %41
  br label %48

46:                                               ; preds = %41, %38
  call void (ptr, ...) @proto_report_dissector_bug(ptr noundef @.str.3, ptr noundef @.str.1, i32 noundef 5082, ptr noundef @.str.7, ptr noundef @.str.5) #27
  unreachable

47:                                               ; No predecessors!
  br label %48

48:                                               ; preds = %47, %45
  %49 = load ptr, ptr getelementptr inbounds nuw (%struct._gpa_hfinfo_t, ptr @gpa_hfinfo, i32 0, i32 2), align 8
  %50 = load i32, ptr %9, align 4
  %51 = sext i32 %50 to i64
  %52 = getelementptr ptr, ptr %49, i64 %51
  %53 = load ptr, ptr %52, align 8
  %54 = icmp ne ptr %53, null
  br i1 %54, label %55, label %56

55:                                               ; preds = %48
  br label %58

56:                                               ; preds = %48
  call void (ptr, ...) @proto_report_dissector_bug(ptr noundef @.str.3, ptr noundef @.str.1, i32 noundef 5082, ptr noundef @.str.8, ptr noundef @.str.5) #27
  unreachable

57:                                               ; No predecessors!
  br label %58

58:                                               ; preds = %57, %55
  %59 = load ptr, ptr getelementptr inbounds nuw (%struct._gpa_hfinfo_t, ptr @gpa_hfinfo, i32 0, i32 2), align 8
  %60 = load i32, ptr %9, align 4
  %61 = sext i32 %60 to i64
  %62 = getelementptr ptr, ptr %59, i64 %61
  %63 = load ptr, ptr %62, align 8
  store ptr %63, ptr %15, align 8
  %64 = load ptr, ptr %8, align 8
  %65 = getelementptr inbounds nuw %struct._proto_node, ptr %64, i32 0, i32 6
  %66 = load ptr, ptr %65, align 8
  %67 = getelementptr inbounds nuw %struct.tree_data_t, ptr %66, i32 0, i32 3
  %68 = load i32, ptr %67, align 4
  %69 = load i32, ptr getelementptr inbounds nuw (%struct._e_prefs, ptr @prefs, i32 0, i32 42), align 8
  %70 = icmp ugt i32 %68, %69
  br i1 %70, label %71, label %96

71:                                               ; preds = %58
  %72 = load i8, ptr @wireshark_abort_on_too_many_items, align 1, !range !10, !noundef !11
  %73 = trunc i8 %72 to i1
  br i1 %73, label %74, label %79

74:                                               ; preds = %71
  %75 = load ptr, ptr %15, align 8
  %76 = getelementptr inbounds nuw %struct._header_field_info, ptr %75, i32 0, i32 1
  %77 = load ptr, ptr %76, align 8
  %78 = load i32, ptr getelementptr inbounds nuw (%struct._e_prefs, ptr @prefs, i32 0, i32 42), align 8
  call void (ptr, i32, ptr, i64, ptr, ptr, ...) @ws_log_fatal_full(ptr noundef @.str, i32 noundef 7, ptr noundef @.str.1, i64 noundef 5082, ptr noundef @__func__.proto_tree_add_ipv6, ptr noundef @.str.12, ptr noundef %77, i32 noundef %78) #27
  unreachable

79:                                               ; preds = %71
  %80 = load ptr, ptr %8, align 8
  %81 = getelementptr inbounds nuw %struct._proto_node, ptr %80, i32 0, i32 6
  %82 = load ptr, ptr %81, align 8
  %83 = getelementptr inbounds nuw %struct.tree_data_t, ptr %82, i32 0, i32 3
  store i32 0, ptr %83, align 4
  %84 = load ptr, ptr %8, align 8
  %85 = getelementptr inbounds nuw %struct._proto_node, ptr %84, i32 0, i32 6
  %86 = load ptr, ptr %85, align 8
  %87 = getelementptr inbounds nuw %struct.tree_data_t, ptr %86, i32 0, i32 4
  %88 = load ptr, ptr %87, align 8
  %89 = getelementptr inbounds nuw %struct._packet_info, ptr %88, i32 0, i32 51
  %90 = load ptr, ptr %89, align 8
  %91 = load ptr, ptr %15, align 8
  %92 = getelementptr inbounds nuw %struct._header_field_info, ptr %91, i32 0, i32 1
  %93 = load ptr, ptr %92, align 8
  %94 = load i32, ptr getelementptr inbounds nuw (%struct._e_prefs, ptr @prefs, i32 0, i32 42), align 8
  %95 = call noalias ptr (ptr, ptr, ...) @wmem_strdup_printf(ptr noundef %90, ptr noundef @.str.12, ptr noundef %93, i32 noundef %94)
  call void @except_throw(i64 noundef 1, i64 noundef 6, ptr noundef %95) #27
  unreachable

96:                                               ; preds = %58
  %97 = load ptr, ptr %8, align 8
  %98 = getelementptr inbounds nuw %struct._proto_node, ptr %97, i32 0, i32 6
  %99 = load ptr, ptr %98, align 8
  %100 = getelementptr inbounds nuw %struct.tree_data_t, ptr %99, i32 0, i32 1
  %101 = load i8, ptr %100, align 8, !range !10, !noundef !11
  %102 = trunc i8 %101 to i1
  br i1 %102, label %134, label %103

103:                                              ; preds = %96
  %104 = load ptr, ptr %8, align 8
  %105 = call zeroext i1 @proto_item_is_hidden(ptr noundef %104)
  br i1 %105, label %106, label %133

106:                                              ; preds = %103
  %107 = load ptr, ptr %15, align 8
  %108 = getelementptr inbounds nuw %struct._header_field_info, ptr %107, i32 0, i32 9
  %109 = load i32, ptr %108, align 8
  %110 = icmp ne i32 %109, 2
  br i1 %110, label %111, label %132

111:                                              ; preds = %106
  %112 = load ptr, ptr %15, align 8
  %113 = getelementptr inbounds nuw %struct._header_field_info, ptr %112, i32 0, i32 9
  %114 = load i32, ptr %113, align 8
  %115 = icmp ne i32 %114, 3
  br i1 %115, label %116, label %132

116:                                              ; preds = %111
  %117 = load ptr, ptr %15, align 8
  %118 = getelementptr inbounds nuw %struct._header_field_info, ptr %117, i32 0, i32 2
  %119 = load i32, ptr %118, align 8
  %120 = icmp ne i32 %119, 1
  br i1 %120, label %128, label %121

121:                                              ; preds = %116
  %122 = load ptr, ptr %8, align 8
  %123 = getelementptr inbounds nuw %struct._proto_node, ptr %122, i32 0, i32 6
  %124 = load ptr, ptr %123, align 8
  %125 = getelementptr inbounds nuw %struct.tree_data_t, ptr %124, i32 0, i32 2
  %126 = load i8, ptr %125, align 1, !range !10, !noundef !11
  %127 = trunc i8 %126 to i1
  br i1 %127, label %128, label %132

128:                                              ; preds = %121, %116
  %129 = load ptr, ptr %8, align 8
  %130 = load ptr, ptr %15, align 8
  %131 = call ptr @proto_tree_add_fake_node(ptr noundef %129, ptr noundef %130)
  store ptr %131, ptr %7, align 8
  store i32 1, ptr %16, align 4
  br label %156

132:                                              ; preds = %121, %111, %106
  br label %133

133:                                              ; preds = %132, %103
  br label %134

134:                                              ; preds = %133, %96
  %135 = load ptr, ptr %15, align 8
  %136 = getelementptr inbounds nuw %struct._header_field_info, ptr %135, i32 0, i32 2
  %137 = load i32, ptr %136, align 8
  %138 = icmp eq i32 %137, 33
  br i1 %138, label %139, label %140

139:                                              ; preds = %134
  br label %145

140:                                              ; preds = %134
  %141 = load ptr, ptr %15, align 8
  %142 = getelementptr inbounds nuw %struct._header_field_info, ptr %141, i32 0, i32 1
  %143 = load ptr, ptr %142, align 8
  call void (ptr, ...) @proto_report_dissector_bug(ptr noundef @.str.58, ptr noundef @.str.1, i32 noundef 5084, ptr noundef %143) #27
  unreachable

144:                                              ; No predecessors!
  br label %145

145:                                              ; preds = %144, %139
  %146 = load ptr, ptr %8, align 8
  %147 = load ptr, ptr %15, align 8
  %148 = load ptr, ptr %10, align 8
  %149 = load i32, ptr %11, align 4
  %150 = call ptr @proto_tree_add_pi(ptr noundef %146, ptr noundef %147, ptr noundef %148, i32 noundef %149, ptr noundef %12)
  store ptr %150, ptr %14, align 8
  %151 = load ptr, ptr %14, align 8
  %152 = getelementptr inbounds nuw %struct._proto_node, ptr %151, i32 0, i32 5
  %153 = load ptr, ptr %152, align 8
  %154 = load ptr, ptr %13, align 8
  call void @proto_tree_set_ipv6(ptr noundef %153, ptr noundef %154)
  %155 = load ptr, ptr %14, align 8
  store ptr %155, ptr %7, align 8
  store i32 1, ptr %16, align 4
  br label %156

156:                                              ; preds = %145, %128, %19
  call void @llvm.lifetime.end.p0(i64 8, ptr %15) #24
  call void @llvm.lifetime.end.p0(i64 8, ptr %14) #24
  %157 = load ptr, ptr %7, align 8
  ret ptr %157
}