; Function Attrs: null_pointer_is_valid sspstrong uwtable
define noundef ptr @proto_tree_add_ipv6(ptr noundef %0, i32 noundef %1, ptr noundef %2, i32 noundef %3, i32 noundef %4, ptr noundef readonly captures(address_is_null) %5) local_unnamed_addr #0 {
  %7 = alloca %struct.ipv6_addr_and_prefix, align 4
  %8 = alloca i32, align 4
  %9 = alloca i32, align 4
  store i32 %4, ptr %9, align 4
  %.not = icmp eq ptr %0, null
  br i1 %.not, label %94, label %10

10:                                               ; preds = %6
  %11 = getelementptr inbounds nuw i8, ptr %0, i64 48
  %12 = load ptr, ptr %11, align 8
  %13 = getelementptr inbounds nuw i8, ptr %12, i64 12
  %14 = load i32, ptr %13, align 4
  %15 = add i32 %14, 1
  store i32 %15, ptr %13, align 4
  %16 = load i32, ptr @gpa_hfinfo.0, align 8
  %17 = freeze i32 %16
  %18 = add i32 %1, -1
  %or.cond.not = icmp ult i32 %18, %17
  br i1 %or.cond.not, label %23, label %19

19:                                               ; preds = %10
  %20 = load i8, ptr @wireshark_abort_on_dissector_bug, align 1, !range !10, !noundef !11
  %21 = trunc nuw i8 %20 to i1
  br i1 %21, label %22, label %23

22:                                               ; preds = %19
  tail call void (ptr, i32, ptr, i64, ptr, ptr, ...) @ws_log_fatal_full(ptr noundef nonnull @.str, i32 noundef 7, ptr noundef nonnull @.str.1, i64 noundef 5082, ptr noundef nonnull @__func__.proto_tree_add_ipv6, ptr noundef nonnull @.str.2, i32 noundef %1) #37
  unreachable

23:                                               ; preds = %10, %19
  %24 = icmp sgt i32 %1, 0
  %25 = icmp ult i32 %1, %17
  %or.cond42 = and i1 %24, %25
  br i1 %or.cond42, label %27, label %26

26:                                               ; preds = %23
  tail call void (ptr, ...) @proto_report_dissector_bug(ptr noundef nonnull @.str.3, ptr noundef nonnull @.str.1, i32 noundef 5082, ptr noundef nonnull @.str.7, ptr noundef nonnull @.str.5) #37
  unreachable

27:                                               ; preds = %23
  %28 = load ptr, ptr @gpa_hfinfo.2, align 8
  %29 = zext nneg i32 %1 to i64
  %30 = getelementptr ptr, ptr %28, i64 %29
  %31 = load ptr, ptr %30, align 8
  %.not36 = icmp eq ptr %31, null
  br i1 %.not36, label %32, label %33

32:                                               ; preds = %27
  tail call void (ptr, ...) @proto_report_dissector_bug(ptr noundef nonnull @.str.3, ptr noundef nonnull @.str.1, i32 noundef 5082, ptr noundef nonnull @.str.8, ptr noundef nonnull @.str.5) #37
  unreachable

33:                                               ; preds = %27
  %34 = load ptr, ptr %11, align 8
  %35 = getelementptr inbounds nuw i8, ptr %34, i64 12
  %36 = load i32, ptr %35, align 4
  %37 = load i32, ptr getelementptr inbounds nuw (i8, ptr @prefs, i64 232), align 8
  %38 = icmp ugt i32 %36, %37
  br i1 %38, label %39, label %55

39:                                               ; preds = %33
  %40 = load i8, ptr @wireshark_abort_on_too_many_items, align 1, !range !10, !noundef !11
  %41 = trunc nuw i8 %40 to i1
  br i1 %41, label %42, label %45

42:                                               ; preds = %39
  %43 = getelementptr inbounds nuw i8, ptr %31, i64 8
  %44 = load ptr, ptr %43, align 8
  tail call void (ptr, i32, ptr, i64, ptr, ptr, ...) @ws_log_fatal_full(ptr noundef nonnull @.str, i32 noundef 7, ptr noundef nonnull @.str.1, i64 noundef 5082, ptr noundef nonnull @__func__.proto_tree_add_ipv6, ptr noundef nonnull @.str.12, ptr noundef %44, i32 noundef %37) #37
  unreachable

45:                                               ; preds = %39
  store i32 0, ptr %35, align 4
  %46 = load ptr, ptr %11, align 8
  %47 = getelementptr inbounds nuw i8, ptr %46, i64 16
  %48 = load ptr, ptr %47, align 8
  %49 = getelementptr inbounds nuw i8, ptr %48, i64 408
  %50 = load ptr, ptr %49, align 8
  %51 = getelementptr inbounds nuw i8, ptr %31, i64 8
  %52 = load ptr, ptr %51, align 8
  %53 = load i32, ptr getelementptr inbounds nuw (i8, ptr @prefs, i64 232), align 8
  %54 = tail call noalias ptr (ptr, ptr, ...) @wmem_strdup_printf(ptr noundef %50, ptr noundef nonnull @.str.12, ptr noundef %52, i32 noundef %53)
  tail call void @except_throw(i64 noundef 1, i64 noundef 6, ptr noundef %54) #37
  unreachable

55:                                               ; preds = %33
  %56 = getelementptr inbounds nuw i8, ptr %34, i64 8
  %57 = load i8, ptr %56, align 8, !range !10, !noundef !11
  %58 = trunc nuw i8 %57 to i1
  br i1 %58, label %77, label %59

59:                                               ; preds = %55
  %60 = getelementptr inbounds nuw i8, ptr %0, i64 40
  %61 = load ptr, ptr %60, align 8
  %.not7.i = icmp eq ptr %61, null
  br i1 %.not7.i, label %proto_item_is_hidden.exit.thread, label %proto_item_is_hidden.exit

proto_item_is_hidden.exit:                        ; preds = %59
  %62 = getelementptr inbounds nuw i8, ptr %61, i64 28
  %63 = load i32, ptr %62, align 4
  %64 = and i32 %63, 1
  %.not45 = icmp eq i32 %64, 0
  br i1 %.not45, label %77, label %proto_item_is_hidden.exit.thread

proto_item_is_hidden.exit.thread:                 ; preds = %59, %proto_item_is_hidden.exit
  %65 = getelementptr inbounds nuw i8, ptr %31, i64 56
  %66 = load i32, ptr %65, align 8
  %67 = and i32 %66, -2
  %switch = icmp eq i32 %67, 2
  br i1 %switch, label %77, label %68

68:                                               ; preds = %proto_item_is_hidden.exit.thread
  %69 = getelementptr inbounds nuw i8, ptr %31, i64 16
  %70 = load i32, ptr %69, align 8
  %.not39 = icmp eq i32 %70, 1
  br i1 %.not39, label %71, label %75

71:                                               ; preds = %68
  %72 = getelementptr inbounds nuw i8, ptr %34, i64 9
  %73 = load i8, ptr %72, align 1, !range !10, !noundef !11
  %74 = trunc nuw i8 %73 to i1
  br i1 %74, label %75, label %77

75:                                               ; preds = %71, %68
  %76 = tail call fastcc ptr @proto_tree_add_fake_node(ptr noundef nonnull %0, ptr noundef %31)
  br label %94

77:                                               ; preds = %proto_item_is_hidden.exit.thread, %proto_item_is_hidden.exit, %71, %55
  %78 = getelementptr inbounds nuw i8, ptr %31, i64 16
  %79 = load i32, ptr %78, align 8
  %80 = icmp eq i32 %79, 33
  br i1 %80, label %84, label %81

81:                                               ; preds = %77
  %82 = getelementptr inbounds nuw i8, ptr %31, i64 8
  %83 = load ptr, ptr %82, align 8
  tail call void (ptr, ...) @proto_report_dissector_bug(ptr noundef nonnull @.str.58, ptr noundef nonnull @.str.1, i32 noundef 5084, ptr noundef %83) #37
  unreachable

84:                                               ; preds = %77
  call void @llvm.lifetime.start.p0(i64 4, ptr nonnull %8) #39
  call fastcc void @get_hfi_length(ptr noundef nonnull %31, ptr noundef %2, i32 noundef %3, ptr noundef nonnull %9, ptr noundef nonnull %8, i32 noundef 0)
  %85 = load i32, ptr %8, align 4
  %86 = tail call fastcc ptr @new_field_info(ptr noundef nonnull %0, ptr noundef nonnull %31, ptr noundef %2, i32 noundef %3, i32 noundef %85)
  %87 = tail call fastcc noundef ptr @proto_tree_add_node(ptr noundef nonnull %0, ptr noundef %86)
  call void @llvm.lifetime.end.p0(i64 4, ptr nonnull %8) #39
  %.not.i43 = icmp eq ptr %5, null
  br i1 %.not.i43, label %88, label %proto_tree_set_ipv6.exit

88:                                               ; preds = %84
  tail call void (ptr, ...) @proto_report_dissector_bug(ptr noundef nonnull @.str.62, ptr noundef nonnull @.str.1, i32 noundef 5136, ptr noundef nonnull @.str.273) #37
  unreachable

proto_tree_set_ipv6.exit:                         ; preds = %84
  %89 = getelementptr inbounds nuw i8, ptr %87, i64 40
  %90 = load ptr, ptr %89, align 8
  call void @llvm.lifetime.start.p0(i64 20, ptr nonnull %7) #39
  call void @llvm.memcpy.p0.p0.i64(ptr noundef nonnull align 4 dereferenceable(16) %7, ptr noundef nonnull readonly align 1 dereferenceable(16) %5, i64 16, i1 false)
  %91 = getelementptr inbounds nuw i8, ptr %7, i64 16
  store i32 128, ptr %91, align 4
  %92 = getelementptr inbounds nuw i8, ptr %90, i64 48
  %93 = load ptr, ptr %92, align 8
  call void @fvalue_set_ipv6(ptr noundef %93, ptr noundef nonnull %7)
  call void @llvm.lifetime.end.p0(i64 20, ptr nonnull %7) #39
  br label %94

94:                                               ; preds = %6, %proto_tree_set_ipv6.exit, %75
  %.0 = phi ptr [ %87, %proto_tree_set_ipv6.exit ], [ %76, %75 ], [ null, %6 ]
  ret ptr %.0
}